target datalayout = "e-m:e-p270:32:32-p271:32:32-p272:64:64-i64:64-i128:128-f80:128-n8:16:32:64-S128"
target triple = "x86_64-pc-linux-gnu"

%struct.AVRational = type { i32, i32 }
%struct.AVFilterContext = type { ptr, ptr, ptr, ptr, ptr, i32, ptr, ptr, i32, ptr, ptr, i32, i32, ptr, ptr, ptr, ptr, i32, ptr, i32, i32 }
%struct.YADIFContext = type { ptr, i32, i32, i32, i32, ptr, ptr, ptr, ptr, ptr, ptr, ptr, ptr, i32, ptr, i32, %struct.CCFifo, i32, i32 }
%struct.CCFifo = type { ptr, ptr, %struct.AVRational, i32, i32, i32, i32, i32, ptr }

; Function Attrs: nounwind uwtable
define void @ff_yadif_uninit(ptr noundef %0) #0 {
  %2 = alloca ptr, align 8
  %3 = alloca ptr, align 8
  store ptr %0, ptr %2, align 8, !tbaa !23
  call void @llvm.lifetime.start.p0(i64 8, ptr %3) #7
  %4 = load ptr, ptr %2, align 8, !tbaa !23
  %5 = getelementptr inbounds nuw %struct.AVFilterContext, ptr %4, i32 0, i32 9
  %6 = load ptr, ptr %5, align 8, !tbaa !24
  store ptr %6, ptr %3, align 8, !tbaa !34
  %7 = load ptr, ptr %3, align 8, !tbaa !34
  %8 = getelementptr inbounds nuw %struct.YADIFContext, ptr %7, i32 0, i32 7
  call void @av_frame_free(ptr noundef %8)
  %9 = load ptr, ptr %3, align 8, !tbaa !34
  %10 = getelementptr inbounds nuw %struct.YADIFContext, ptr %9, i32 0, i32 5
  call void @av_frame_free(ptr noundef %10)
  %11 = load ptr, ptr %3, align 8, !tbaa !34
  %12 = getelementptr inbounds nuw %struct.YADIFContext, ptr %11, i32 0, i32 6
  call void @av_frame_free(ptr noundef %12)
  %13 = load ptr, ptr %3, align 8, !tbaa !34
  %14 = getelementptr inbounds nuw %struct.YADIFContext, ptr %13, i32 0, i32 16
  call void @ff_ccfifo_uninit(ptr noundef %14)
  call void @llvm.lifetime.end.p0(i64 8, ptr %3) #7
  ret void
}