; Function Attrs: nounwind uwtable
define void @ff_yadif_uninit(ptr noundef readonly captures(none) %0) local_unnamed_addr #0 {
  %2 = getelementptr inbounds nuw i8, ptr %0, i64 72
  %3 = load ptr, ptr %2, align 8, !tbaa !19
  %4 = getelementptr inbounds nuw i8, ptr %3, i64 40
  tail call void @av_frame_free(ptr noundef nonnull %4) #5
  %5 = getelementptr inbounds nuw i8, ptr %3, i64 24
  tail call void @av_frame_free(ptr noundef nonnull %5) #5
  %6 = getelementptr inbounds nuw i8, ptr %3, i64 32
  tail call void @av_frame_free(ptr noundef nonnull %6) #5
  %7 = getelementptr inbounds nuw i8, ptr %3, i64 112
  tail call void @ff_ccfifo_uninit(ptr noundef nonnull %7) #5
  ret void
}